Certificate:
    Data:
        Version: 3 (0x2)
        Serial Number: 1 (0x1)
        Signature Algorithm: sha256WithRSAEncryption
        Issuer: C=US, ST=WA, L=Seattle, O=GonzaloAlvarez, OU=MainHome, CN=ca-certificate
        Validity
            Not Before: Jan 31 18:30:49 2017 GMT
            Not After : Jan 25 18:30:49 2022 GMT
        Subject: C=US, ST=WA, L=Seattle, O=GonzaloAlvarez, OU=Home, CN=server
        Subject Public Key Info:
            Public Key Algorithm: rsaEncryption
            RSA Public Key: (4096 bit)
                Modulus (4096 bit):
                    00:9e:89:c2:82:a3:fa:56:a1:3c:b4:fc:40:e0:05:
                    87:74:2f:1a:13:5e:db:15:95:a1:5d:a0:af:8a:98:
                    9e:0a:35:51:b2:ba:05:f8:2a:cd:aa:8a:83:1a:62:
                    bb:84:8a:49:01:18:d4:ab:2b:fd:43:2b:19:8b:c1:
                    fd:79:54:eb:d1:c5:d4:c6:b0:99:26:c5:a3:e6:a8:
                    50:9e:c3:bd:47:67:5e:0c:ea:1d:9f:69:1b:1a:6a:
                    39:e0:0b:c0:ae:51:7e:33:de:05:e4:f0:69:34:d7:
                    40:77:e3:6f:bb:c3:ee:5b:11:30:6a:f1:9f:26:b2:
                    c7:74:1e:5a:f6:2a:75:b5:11:44:34:c4:2f:6d:41:
                    48:0f:75:86:31:02:19:28:df:fb:6a:d1:6f:47:c5:
                    6c:bf:53:8c:ec:ff:6a:21:9c:21:af:c3:3c:11:af:
                    e6:d5:67:78:c0:5c:13:1e:7a:cf:6e:b2:58:1c:72:
                    f5:5e:bd:a4:04:fa:c9:64:1e:a3:28:e4:58:76:72:
                    2a:c8:41:17:43:b3:d7:c2:93:ab:b9:dc:c7:75:46:
                    03:c7:a8:be:c9:7e:fb:44:2a:02:2c:ae:d8:36:2c:
                    3c:fe:50:15:35:8e:4f:4e:58:bc:76:ac:61:b1:42:
                    fa:66:b9:58:34:93:dc:c4:e1:ec:d5:9e:87:22:5a:
                    cd:d0:e4:30:00:dd:86:41:88:16:07:f7:f5:5f:bc:
                    b1:14:aa:7b:26:9e:ed:fc:d5:8c:38:f8:18:e8:63:
                    7c:ed:aa:e0:3a:04:0b:e4:2a:14:76:19:80:b7:39:
                    8f:6f:3f:be:7e:77:f6:b9:a3:16:e1:76:ea:93:3d:
                    7c:4b:bb:fb:3d:bb:23:dc:b9:e9:56:b4:39:a4:0d:
                    42:f0:04:93:a3:f7:b2:ce:6e:dd:ea:46:f8:c7:64:
                    ab:5e:44:32:33:7a:3f:2e:b4:3e:8d:b4:21:02:1c:
                    65:b9:b7:74:e8:66:ec:a3:cf:5b:e7:e5:9c:20:ce:
                    a4:27:1d:90:34:6e:21:18:3a:6f:b5:70:aa:67:d1:
                    8c:89:27:f5:be:ff:4c:e8:24:ec:84:9c:e1:78:ed:
                    4f:07:cd:6d:d4:67:d8:e8:1b:79:86:d4:4c:a5:b3:
                    f5:c0:5b:5a:da:b6:da:35:4a:cb:5a:8b:58:de:8a:
                    d3:d3:1c:c9:c2:9a:b2:cc:94:06:60:64:f8:de:37:
                    2a:16:60:a4:71:54:22:0c:f9:2c:ef:d3:09:5a:ed:
                    5c:73:4e:17:5b:27:47:89:89:38:8d:7d:e0:1d:a6:
                    c6:43:ad:56:70:41:a6:f5:c0:78:83:a0:da:28:8d:
                    39:48:0d:cb:90:9d:c2:d8:ad:5c:1e:2d:c1:f8:1a:
                    de:4a:01
                Exponent: 65537 (0x10001)
        X509v3 extensions:
            X509v3 Basic Constraints: 
                CA:FALSE
            Netscape Cert Type: 
                SSL Server
            Netscape Comment: 
                Ansible Generated Server Certificate
            X509v3 Subject Key Identifier: 
                6E:C2:95:15:88:94:37:4C:A6:AE:35:80:1C:E5:3D:4C:E0:8D:18:63
            X509v3 Authority Key Identifier: 
                keyid:03:39:10:66:95:3A:AD:AA:61:46:AF:B8:70:46:C9:D8:DD:4D:9F:3E
                DirName:/C=US/ST=WA/L=Seattle/O=GonzaloAlvarez/OU=MainHome/CN=ca-certificate
                serial:B0:6B:72:87:2D:00:78:B3

            X509v3 Extended Key Usage: 
                TLS Web Server Authentication
            X509v3 Key Usage: 
                Digital Signature, Key Encipherment
    Signature Algorithm: sha256WithRSAEncryption
        5f:bd:28:8a:c2:2f:08:66:c5:31:24:4d:32:1d:08:b2:49:88:
        89:65:de:cb:5b:fc:63:4d:94:45:33:54:41:7a:f8:7f:14:1c:
        6f:3e:10:b2:7b:e1:47:fc:98:52:89:83:85:9b:0c:69:aa:bd:
        bb:10:f5:35:95:c4:a9:75:70:59:a3:ec:53:ce:08:c4:13:fd:
        0d:d5:af:37:46:7f:97:8e:b3:63:19:e0:a4:94:fc:c4:5c:dc:
        15:89:99:fe:c9:04:ae:68:15:57:05:c0:2b:ec:92:dc:65:be:
        35:d5:d1:68:56:ab:13:c6:d6:07:3d:2a:94:96:99:2b:fa:b7:
        ed:5c:77:26:0f:8c:e6:27:ff:37:1a:1d:33:32:55:76:ca:cf:
        0a:64:39:d9:a1:b2:5a:ea:a7:68:e0:b6:51:10:d6:a8:a6:4a:
        49:3c:20:c1:e4:53:d9:61:29:a4:79:3a:e4:ab:b8:9e:75:73:
        ef:d6:82:ab:46:de:8b:c7:af:e6:e9:3f:2d:e9:c7:4e:51:ba:
        44:2f:4a:80:76:cb:8b:ab:0f:0f:5d:18:5c:79:48:ab:73:85:
        7f:43:79:0f:13:b9:48:4b:00:6a:b9:9a:a2:70:31:a6:7f:63:
        a5:60:7f:c1:70:e9:23:25:bb:38:d4:ba:45:88:9d:47:32:ee:
        d0:5f:b1:bd:34:a9:85:56:61:a9:0b:87:72:3c:d5:a8:29:8c:
        a9:e0:49:72:4a:9a:88:16:36:67:4f:b8:ed:a7:27:6c:9f:e1:
        95:1a:61:7d:e4:6b:d6:7b:0e:ad:a2:ad:4e:dc:a2:6f:8a:b7:
        ff:c5:1f:e0:5a:18:07:51:b7:af:73:2e:b0:9d:2b:ef:f2:89:
        f6:27:35:ed:18:c2:bf:36:06:a0:70:13:15:0b:95:10:c7:52:
        1e:28:3b:bf:03:14:65:eb:4e:04:1a:4d:69:6a:68:92:b4:3c:
        7a:cc:d6:5e:67:6c:80:23:d8:e0:a2:1c:bf:de:41:67:29:c7:
        b2:c6:7a:8a:b6:ab:5c:ea:4f:1d:49:33:57:61:27:bf:70:a5:
        fe:27:bf:4b:0e:73:d8:63:e3:42:a9:ad:1d:c1:f9:53:c8:a0:
        3a:5b:c3:75:d1:f5:1c:64:40:81:55:1f:2e:77:e7:a6:47:86:
        51:ce:cc:3b:a8:70:03:b7:1a:d8:9e:f7:3c:e9:51:8f:ca:4b:
        d2:93:02:7b:d4:38:68:45:7a:ec:87:54:78:61:dd:75:79:84:
        55:7b:c6:e8:8c:9c:5b:d5:12:08:4a:2b:e7:5d:4e:7a:60:ab:
        16:86:82:15:a1:2f:d1:f7:46:1a:79:dd:e0:5b:28:29:c2:c8:
        1f:24:5a:5d:e5:c7:fc:10
-----BEGIN CERTIFICATE-----
MIIGkTCCBHmgAwIBAgIBATANBgkqhkiG9w0BAQsFADBxMQswCQYDVQQGEwJVUzEL
MAkGA1UECBMCV0ExEDAOBgNVBAcTB1NlYXR0bGUxFzAVBgNVBAoTDkdvbnphbG9B
bHZhcmV6MREwDwYDVQQLEwhNYWluSG9tZTEXMBUGA1UEAxMOY2EtY2VydGlmaWNh
dGUwHhcNMTcwMTMxMTgzMDQ5WhcNMjIwMTI1MTgzMDQ5WjBlMQswCQYDVQQGEwJV
UzELMAkGA1UECAwCV0ExEDAOBgNVBAcMB1NlYXR0bGUxFzAVBgNVBAoMDkdvbnph
bG9BbHZhcmV6MQ0wCwYDVQQLDARIb21lMQ8wDQYDVQQDDAZzZXJ2ZXIwggIiMA0G
CSqGSIb3DQEBAQUAA4ICDwAwggIKAoICAQCeicKCo/pWoTy0/EDgBYd0LxoTXtsV
laFdoK+KmJ4KNVGyugX4Ks2qioMaYruEikkBGNSrK/1DKxmLwf15VOvRxdTGsJkm
xaPmqFCew71HZ14M6h2faRsaajngC8CuUX4z3gXk8Gk010B342+7w+5bETBq8Z8m
ssd0Hlr2KnW1EUQ0xC9tQUgPdYYxAhko3/tq0W9HxWy/U4zs/2ohnCGvwzwRr+bV
Z3jAXBMees9uslgccvVevaQE+slkHqMo5Fh2cirIQRdDs9fCk6u53Md1RgPHqL7J
fvtEKgIsrtg2LDz+UBU1jk9OWLx2rGGxQvpmuVg0k9zE4ezVnociWs3Q5DAA3YZB
iBYH9/VfvLEUqnsmnu381Yw4+BjoY3ztquA6BAvkKhR2GYC3OY9vP75+d/a5oxbh
duqTPXxLu/s9uyPcuelWtDmkDULwBJOj97LObt3qRvjHZKteRDIzej8utD6NtCEC
HGW5t3ToZuyjz1vn5ZwgzqQnHZA0biEYOm+1cKpn0YyJJ/W+/0zoJOyEnOF47U8H
zW3UZ9joG3mG1Eyls/XAW1ratto1Sstai1jeitPTHMnCmrLMlAZgZPjeNyoWYKRx
VCIM+Szv0wla7VxzThdbJ0eJiTiNfeAdpsZDrVZwQab1wHiDoNoojTlIDcuQncLY
rVweLcH4Gt5KAQIDAQABo4IBPjCCATowCQYDVR0TBAIwADARBglghkgBhvhCAQEE
BAMCBkAwMwYJYIZIAYb4QgENBCYWJEFuc2libGUgR2VuZXJhdGVkIFNlcnZlciBD
ZXJ0aWZpY2F0ZTAdBgNVHQ4EFgQUbsKVFYiUN0ymrjWAHOU9TOCNGGMwgaMGA1Ud
IwSBmzCBmIAUAzkQZpU6raphRq+4cEbJ2N1Nnz6hdaRzMHExCzAJBgNVBAYTAlVT
MQswCQYDVQQIEwJXQTEQMA4GA1UEBxMHU2VhdHRsZTEXMBUGA1UEChMOR29uemFs
b0FsdmFyZXoxETAPBgNVBAsTCE1haW5Ib21lMRcwFQYDVQQDEw5jYS1jZXJ0aWZp
Y2F0ZYIJALBrcoctAHizMBMGA1UdJQQMMAoGCCsGAQUFBwMBMAsGA1UdDwQEAwIF
oDANBgkqhkiG9w0BAQsFAAOCAgEAX70oisIvCGbFMSRNMh0IskmIiWXey1v8Y02U
RTNUQXr4fxQcbz4QsnvhR/yYUomDhZsMaaq9uxD1NZXEqXVwWaPsU84IxBP9DdWv
N0Z/l46zYxngpJT8xFzcFYmZ/skErmgVVwXAK+yS3GW+NdXRaFarE8bWBz0qlJaZ
K/q37Vx3Jg+M5if/NxodMzJVdsrPCmQ52aGyWuqnaOC2URDWqKZKSTwgweRT2WEp
pHk65Ku4nnVz79aCq0bei8ev5uk/LenHTlG6RC9KgHbLi6sPD10YXHlIq3OFf0N5
DxO5SEsAarmaonAxpn9jpWB/wXDpIyW7ONS6RYidRzLu0F+xvTSphVZhqQuHcjzV
qCmMqeBJckqaiBY2Z0+47acnbJ/hlRphfeRr1nsOraKtTtyib4q3/8Uf4FoYB1G3
r3MusJ0r7/KJ9ic17RjCvzYGoHATFQuVEMdSHig7vwMUZetOBBpNaWpokrQ8eszW
XmdsgCPY4KIcv95BZynHssZ6irarXOpPHUkzV2Env3Cl/ie/Sw5z2GPjQqmtHcH5
U8igOlvDddH1HGRAgVUfLnfnpkeGUc7MO6hwA7ca2J73POlRj8pL0pMCe9Q4aEV6
7IdUeGHddXmEVXvG6IycW9USCEor511OemCrFoaCFaEv0fdGGnnd4FsoKcLIHyRa
XeXH/BA=
-----END CERTIFICATE-----
